Certificate:
    Data:
        Version: 1 (0x0)
        Serial Number: 1 (0x1)
        Signature Algorithm: md5WithRSAEncryption
        Issuer: C=US, O=Red Hat, CN=Todd Ruch
        Validity
            Not Before: Jun 29 16:01:44 2023 GMT
            Not After : Jun 28 16:01:44 2024 GMT
        Subject: C=US, ST=MD, L=Pasadena, O=Red Hat, OU=Sales, CN=aaphub.local
        Subject Public Key Info:
            Public Key Algorithm: rsaEncryption
                Public-Key: (1024 bit)
                Modulus:
                    00:cc:9c:b3:66:10:6d:d3:50:60:a8:61:3d:d5:61:
                    92:6a:70:d2:bb:d7:20:21:e8:13:94:ab:53:61:03:
                    67:72:e8:d1:ee:01:2e:41:49:d6:5f:6e:5d:2f:8b:
                    93:3b:ee:00:09:96:f5:05:3a:6b:be:57:26:a2:81:
                    09:f1:73:fd:46:87:60:df:3b:ce:bc:aa:23:65:d6:
                    80:5c:b6:6f:6e:97:84:9b:fb:57:48:57:03:88:f6:
                    49:40:7f:e0:f9:d6:75:f6:94:b1:e6:e6:f8:b6:1d:
                    d3:25:fc:40:4f:fe:01:08:42:93:88:73:da:2e:fb:
                    07:ba:1a:2d:e1:7f:b6:72:0f
                Exponent: 65537 (0x10001)
    Signature Algorithm: md5WithRSAEncryption
    Signature Value:
        b8:a7:06:be:eb:1f:8d:3e:42:c0:f3:c8:02:0d:9e:f3:88:20:
        0b:1c:0b:60:45:48:ac:e5:ba:fc:47:1b:a5:a2:44:0d:4c:67:
        e2:6c:c0:5f:fa:9d:50:de:13:16:fa:b1:a4:07:e3:e0:56:2b:
        1f:d0:3a:19:ae:c7:93:10:ec:31:8b:67:b8:e1:53:ed:95:27:
        0a:f4:99:86:82:2d:f3:39:6c:df:3f:1a:82:e6:96:20:25:93:
        80:75:b4:06:08:51:9d:2f:98:dc:5e:97:ac:6f:f5:15:9a:d3:
        e0:66:d3:f5:55:73:61:9d:4b:5c:da:c4:78:49:a7:9f:bb:54:
        fe:85:1b:01:85:32:d9:47:6b:82:cd:87:12:40:5e:8a:e0:d9:
        8e:bc:cc:64:85:1b:34:d4:5a:4a:d3:ba:4f:76:55:65:24:b7:
        0d:23:d8:b7:a4:36:6f:31:5b:91:b0:c9:36:ab:f0:66:e9:08:
        dc:c7:cb:a9:f0:d8:75:4c:a8:57:1b:36:4e:69:01:61:ea:d8:
        b5:85:a8:f6:b7:38:eb:7e:3c:d2:97:f8:d8:31:52:70:45:d7:
        84:d2:9d:59:16:b4:53:85:91:cc:14:0d:44:bf:b9:ec:2e:b8:
        b5:79:85:03:19:40:7f:21:17:6c:ba:ee:4b:c3:4b:7a:7a:40:
        48:5b:5c:a7
-----BEGIN CERTIFICATE-----
MIICiTCCAXECAQEwDQYJKoZIhvcNAQEEBQAwMzELMAkGA1UEBhMCVVMxEDAOBgNV
BAoMB1JlZCBIYXQxEjAQBgNVBAMMCVRvZGQgUnVjaDAeFw0yMzA2MjkxNjAxNDRa
Fw0yNDA2MjgxNjAxNDRaMGYxCzAJBgNVBAYTAlVTMQswCQYDVQQIDAJNRDERMA8G
A1UEBwwIUGFzYWRlbmExEDAOBgNVBAoMB1JlZCBIYXQxDjAMBgNVBAsMBVNhbGVz
MRUwEwYDVQQDDAxhYXBodWIubG9jYWwwgZ8wDQYJKoZIhvcNAQEBBQADgY0AMIGJ
AoGBAMycs2YQbdNQYKhhPdVhkmpw0rvXICHoE5SrU2EDZ3Lo0e4BLkFJ1l9uXS+L
kzvuAAmW9QU6a75XJqKBCfFz/UaHYN87zryqI2XWgFy2b26XhJv7V0hXA4j2SUB/
4PnWdfaUsebm+LYd0yX8QE/+AQhCk4hz2i77B7oaLeF/tnIPAgMBAAEwDQYJKoZI
hvcNAQEEBQADggEBALinBr7rH40+QsDzyAINnvOIIAscC2BFSKzluvxHG6WiRA1M
Z+JswF/6nVDeExb6saQH4+BWKx/QOhmux5MQ7DGLZ7jhU+2VJwr0mYaCLfM5bN8/
GoLmliAlk4B1tAYIUZ0vmNxel6xv9RWa0+Bm0/VVc2GdS1zaxHhJp5+7VP6FGwGF
MtlHa4LNhxJAXorg2Y68zGSFGzTUWkrTuk92VWUktw0j2LekNm8xW5GwyTar8Gbp
CNzHy6nw2HVMqFcbNk5pAWHq2LWFqPa3OOt+PNKX+NgxUnBF14TSnVkWtFOFkcwU
DUS/uewuuLV5hQMZQH8hF2y67kvDS3p6QEhbXKc=
-----END CERTIFICATE-----
-----BEGIN PRIVATE KEY-----
MIICdgIBADANBgkqhkiG9w0BAQEFAASCAmAwggJcAgEAAoGBAMycs2YQbdNQYKhh
PdVhkmpw0rvXICHoE5SrU2EDZ3Lo0e4BLkFJ1l9uXS+LkzvuAAmW9QU6a75XJqKB
CfFz/UaHYN87zryqI2XWgFy2b26XhJv7V0hXA4j2SUB/4PnWdfaUsebm+LYd0yX8
QE/+AQhCk4hz2i77B7oaLeF/tnIPAgMBAAECgYEAq4/MoIyv+ZoQob5/YTZh1Rvq
ppO3npaALI0G6XY4PFJZC44z4Yxu0i+wtNf8SSjDIUdRBOQ6SSu7+k/mLW1K9GGI
wzPB3HkmQAsgUI+0A4hMd3N1rbxXoigckIaBJIpO0XHqWPmkd4AYT6AZcglLTyKN
aDy05vRQo4DOJS4dM+kCQQD8r7kRCvRiPMqqlK3o5W/hp5QlS18dfylrpeuJ+EdG
9rOvlb8eVrrYf7ey3c7dE0cCCM2WHiQP2rCbA9atDRidAkEAz0uXOy6FdNvHR0GW
Alx/PgvhLupLAFRyZrFcZBC9IQdIS65z9BUUH1EE1v6tX5wgvMXYWbrQeDqqJSe7
TDlHmwJBAL8epeqXD4qyElP9CqDp0LqrhmjC3lkwEgMixslfKYIqHHRE3f4zeTVB
PI8kJ0+dQgru35iYiYwYS5WjzJ6tFh0CQHa7BA7YsYXiT/ynOyV1F0hRg5PcjELP
G4toMNP7pmghhK4caLu3ywO44v3Fd0YY5cNZynZygu8qIsQPQr8A29sCPzdWoiar
UCCPIsD8D7Pqypc2cgcHiNJBfpbzCA0PNReyO8WLFR8OSwVeBnJrZg/4Te5ZxhzN
2gcMNOkeKz2HUQ==
-----END PRIVATE KEY-----
