Certificate:
    Data:
        Version: 1 (0x0)
        Serial Number: 5 (0x5)
        Signature Algorithm: md5WithRSAEncryption
        Issuer: C=US, O=Red Hat, CN=Todd Ruch
        Validity
            Not Before: Nov  6 17:34:46 2023 GMT
            Not After : Nov  5 17:34:46 2024 GMT
        Subject: C=US, ST=NC, L=Raleigh, O=NAPS, OU=RedHat, CN=entrenchedrealist.com/emailAddress=truch@redhat.com
        Subject Public Key Info:
            Public Key Algorithm: rsaEncryption
                Public-Key: (2048 bit)
                Modulus:
                    00:af:bd:20:ff:d5:4a:0a:c0:17:a9:a5:ef:52:0f:
                    50:e2:09:e6:be:90:8c:dd:5d:aa:be:dc:17:94:8c:
                    7c:73:b1:57:10:43:50:70:78:35:6d:a5:9d:53:31:
                    f2:f5:78:76:f7:0b:8b:2d:35:66:62:4f:aa:6d:68:
                    31:0e:4d:36:de:ff:cc:43:f6:b7:17:19:73:27:48:
                    f4:82:52:01:47:8e:fe:0f:84:6b:7b:6b:2b:fd:72:
                    0f:1a:2a:23:41:fa:b2:53:8a:57:eb:65:4b:1d:8a:
                    e8:eb:b7:7a:db:f7:90:f9:fa:14:2f:7e:f7:71:f1:
                    e5:df:fe:81:db:39:dc:c4:8a:95:23:68:20:3a:94:
                    bf:c4:5b:a5:87:52:e2:94:39:d2:30:8d:26:fa:22:
                    49:3a:d4:dc:1c:27:cf:50:04:d6:14:76:5a:3a:c9:
                    26:7c:7f:ad:f3:24:b1:0c:bc:6c:91:e5:c0:76:65:
                    f1:a8:42:0d:7a:f9:06:72:d9:99:df:c8:11:d3:a3:
                    fd:0f:8b:b4:a2:8d:2c:e8:95:a8:50:ea:75:ed:0f:
                    7a:a2:41:49:55:71:4e:70:4b:fd:82:07:63:88:37:
                    93:b0:eb:cc:26:e1:bf:2e:c6:55:80:37:99:7b:a9:
                    f4:8d:24:39:70:55:52:80:9c:22:a1:52:a9:19:53:
                    07:79
                Exponent: 65537 (0x10001)
    Signature Algorithm: md5WithRSAEncryption
    Signature Value:
        de:d3:89:86:e1:c0:ab:9a:73:38:fd:cd:d5:65:7f:b6:1e:8b:
        71:b5:74:cc:db:64:27:20:fd:32:b2:26:a1:15:97:f0:b6:b6:
        2b:2a:e3:05:87:da:94:3e:25:5a:96:7c:cc:ae:4c:68:fc:b4:
        42:4c:32:f5:e0:11:22:31:c6:5f:92:14:9d:66:e5:b3:75:e5:
        96:58:b1:b0:28:5b:7c:78:52:5b:7d:13:20:c5:56:8f:ad:57:
        ca:68:03:98:ff:c7:f5:0d:e1:7f:5d:63:22:b0:96:b0:e9:12:
        e6:90:df:74:54:e3:70:af:2a:50:b8:4d:c6:dd:09:a3:60:f9:
        fc:a5:ed:85:c0:4b:78:2a:ec:32:e0:94:a7:fe:8b:1c:96:d8:
        25:ef:ff:d0:23:8b:ed:60:4d:3e:82:07:50:e8:65:a8:9b:c9:
        21:c5:72:d2:fb:c6:b1:18:c3:f9:fa:65:52:93:28:28:1b:a9:
        67:3c:d8:56:42:25:be:bd:1d:7f:e4:af:80:c4:ee:2a:3d:b4:
        25:4f:d0:30:66:3d:7d:66:10:f7:5f:37:b1:0f:05:c9:cc:ef:
        49:f1:8a:ff:c4:93:45:49:2e:85:64:24:a4:c8:f3:29:99:ba:
        50:34:30:a1:67:b8:69:a1:04:3b:41:46:45:17:5b:08:02:b5:
        c6:7a:63:ab
-----BEGIN CERTIFICATE-----
MIIDNTCCAh0CAQUwDQYJKoZIhvcNAQEEBQAwMzELMAkGA1UEBhMCVVMxEDAOBgNV
BAoMB1JlZCBIYXQxEjAQBgNVBAMMCVRvZGQgUnVjaDAeFw0yMzExMDYxNzM0NDZa
Fw0yNDExMDUxNzM0NDZaMIGNMQswCQYDVQQGEwJVUzELMAkGA1UECBMCTkMxEDAO
BgNVBAcTB1JhbGVpZ2gxDTALBgNVBAoTBE5BUFMxDzANBgNVBAsTBlJlZEhhdDEe
MBwGA1UEAxMVZW50cmVuY2hlZHJlYWxpc3QuY29tMR8wHQYJKoZIhvcNAQkBFhB0
cnVjaEByZWRoYXQuY29tMIIBIjANBgkqhkiG9w0BAQEFAAOCAQ8AMIIBCgKCAQEA
r70g/9VKCsAXqaXvUg9Q4gnmvpCM3V2qvtwXlIx8c7FXEENQcHg1baWdUzHy9Xh2
9wuLLTVmYk+qbWgxDk023v/MQ/a3FxlzJ0j0glIBR47+D4Rre2sr/XIPGiojQfqy
U4pX62VLHYro67d62/eQ+foUL373cfHl3/6B2zncxIqVI2ggOpS/xFulh1LilDnS
MI0m+iJJOtTcHCfPUATWFHZaOskmfH+t8ySxDLxskeXAdmXxqEINevkGctmZ38gR
06P9D4u0oo0s6JWoUOp17Q96okFJVXFOcEv9ggdjiDeTsOvMJuG/LsZVgDeZe6n0
jSQ5cFVSgJwioVKpGVMHeQIDAQABMA0GCSqGSIb3DQEBBAUAA4IBAQDe04mG4cCr
mnM4/c3VZX+2HotxtXTM22QnIP0ysiahFZfwtrYrKuMFh9qUPiValnzMrkxo/LRC
TDL14BEiMcZfkhSdZuWzdeWWWLGwKFt8eFJbfRMgxVaPrVfKaAOY/8f1DeF/XWMi
sJaw6RLmkN90VONwrypQuE3G3QmjYPn8pe2FwEt4Kuwy4JSn/oscltgl7//QI4vt
YE0+ggdQ6GWom8khxXLS+8axGMP5+mVSkygoG6lnPNhWQiW+vR1/5K+AxO4qPbQl
T9AwZj19ZhD3XzexDwXJzO9J8Yr/xJNFSS6FZCSkyPMpmbpQNDChZ7hpoQQ7QUZF
F1sIArXGemOr
-----END CERTIFICATE-----
